target datalayout = "e-m:e-p270:32:32-p271:32:32-p272:64:64-i64:64-i128:128-f80:128-n8:16:32:64-S128"
target triple = "x86_64-pc-linux-gnu"

%struct.H5O_loc_t = type { ptr, i64, i8 }
%struct.H5A_attr_iter_op_t = type { i32, %union.anon.1 }
%union.anon.1 = type { ptr }
%struct.H5A_dense_file_cp_ud_t = type { ptr, ptr, ptr, ptr, ptr, ptr }

@.str.3 = private unnamed_addr constant [100 x i8] c"generated/home/dtcxzyw/WorkSpace/Projects/compilers/llvm-opt-benchmark/bench/hdf5/hdf5/src/H5Aint.c\00", align 1
@H5E_ATTR_g = external global i64, align 8
@H5E_CANTINIT_g = external global i64, align 8
@.str.58 = private unnamed_addr constant [31 x i8] c"error building attribute table\00", align 1
@__func__.H5A__dense_post_copy_file_all = private unnamed_addr constant [30 x i8] c"H5A__dense_post_copy_file_all\00", align 1

; Function Attrs: nounwind uwtable
define i32 @H5A__dense_post_copy_file_all(ptr noundef %0, ptr noundef %1, ptr noundef %2, ptr noundef %3, ptr noundef %4) #0 {
  %6 = alloca ptr, align 8
  %7 = alloca ptr, align 8
  %8 = alloca ptr, align 8
  %9 = alloca ptr, align 8
  %10 = alloca ptr, align 8
  %11 = alloca %struct.H5A_dense_file_cp_ud_t, align 8
  %12 = alloca %struct.H5A_attr_iter_op_t, align 8
  %13 = alloca i8, align 1
  %14 = alloca i32, align 4
  %15 = alloca i8, align 1
  store ptr %0, ptr %6, align 8
  store ptr %1, ptr %7, align 8
  store ptr %2, ptr %8, align 8
  store ptr %3, ptr %9, align 8
  store ptr %4, ptr %10, align 8
  store i8 0, ptr %13, align 1
  store i32 0, ptr %14, align 4
  store i8 0, ptr %15, align 1
  %16 = load ptr, ptr %9, align 8
  %17 = getelementptr inbounds %struct.H5A_dense_file_cp_ud_t, ptr %11, i32 0, i32 0
  store ptr %16, ptr %17, align 8
  %18 = load ptr, ptr %8, align 8
  %19 = getelementptr inbounds %struct.H5O_loc_t, ptr %18, i32 0, i32 0
  %20 = load ptr, ptr %19, align 8
  %21 = getelementptr inbounds %struct.H5A_dense_file_cp_ud_t, ptr %11, i32 0, i32 1
  store ptr %20, ptr %21, align 8
  %22 = getelementptr inbounds %struct.H5A_dense_file_cp_ud_t, ptr %11, i32 0, i32 2
  store ptr %13, ptr %22, align 8
  %23 = load ptr, ptr %10, align 8
  %24 = getelementptr inbounds %struct.H5A_dense_file_cp_ud_t, ptr %11, i32 0, i32 3
  store ptr %23, ptr %24, align 8
  %25 = load ptr, ptr %6, align 8
  %26 = getelementptr inbounds %struct.H5A_dense_file_cp_ud_t, ptr %11, i32 0, i32 4
  store ptr %25, ptr %26, align 8
  %27 = load ptr, ptr %8, align 8
  %28 = getelementptr inbounds %struct.H5A_dense_file_cp_ud_t, ptr %11, i32 0, i32 5
  store ptr %27, ptr %28, align 8
  %29 = getelementptr inbounds %struct.H5A_attr_iter_op_t, ptr %12, i32 0, i32 0
  store i32 2, ptr %29, align 8
  %30 = getelementptr inbounds %struct.H5A_attr_iter_op_t, ptr %12, i32 0, i32 1
  store ptr @H5A__dense_post_copy_file_cb, ptr %30, align 8
  %31 = load ptr, ptr %6, align 8
  %32 = getelementptr inbounds %struct.H5O_loc_t, ptr %31, i32 0, i32 0
  %33 = load ptr, ptr %32, align 8
  %34 = load ptr, ptr %7, align 8
  %35 = call i32 @H5A__dense_iterate(ptr noundef %33, i64 noundef 0, ptr noundef %34, i32 noundef 0, i32 noundef 2, i64 noundef 0, ptr noundef null, ptr noundef %12, ptr noundef %11)
  %36 = icmp slt i32 %35, 0
  br i1 %36, label %37, label %52

37:                                               ; preds = %5
  br label %38

38:                                               ; preds = %37
  br label %39

39:                                               ; preds = %38
  br label %40

40:                                               ; preds = %39
  %41 = load i64, ptr @H5E_ATTR_g, align 8
  %42 = load i64, ptr @H5E_CANTINIT_g, align 8
  %43 = call i32 (ptr, ptr, i32, i64, i64, ptr, ...) @H5E_printf_stack(ptr noundef @.str.3, ptr noundef @__func__.H5A__dense_post_copy_file_all, i32 noundef 2475, i64 noundef %41, i64 noundef %42, ptr noundef @.str.58)
  br label %44

44:                                               ; preds = %40
  store i8 1, ptr %15, align 1
  %45 = load i8, ptr %15, align 1
  %46 = trunc i8 %45 to i1
  %47 = zext i1 %46 to i8
  store i8 %47, ptr %15, align 1
  br label %48

48:                                               ; preds = %44
  br label %49

49:                                               ; preds = %48
  store i32 -1, ptr %14, align 4
  br label %53

50:                                               ; No predecessors!
  br label %51

51:                                               ; preds = %50
  br label %52

52:                                               ; preds = %51, %5
  br label %53

53:                                               ; preds = %52, %49
  %54 = load i32, ptr %14, align 4
  ret i32 %54
}