; Function Attrs: nounwind uwtable
define range(i32 -1, 1) i32 @H5A__dense_post_copy_file_all(ptr noundef %0, ptr noundef %1, ptr noundef %2, ptr noundef %3, ptr noundef %4) local_unnamed_addr #0 {
  %6 = alloca %struct.H5A_dense_file_cp_ud_t, align 8
  %7 = alloca %struct.H5A_attr_iter_op_t, align 8
  %8 = alloca i8, align 1
  store i8 0, ptr %8, align 1
  store ptr %3, ptr %6, align 8
  %9 = load ptr, ptr %2, align 8
  %10 = getelementptr inbounds i8, ptr %6, i64 8
  store ptr %9, ptr %10, align 8
  %11 = getelementptr inbounds i8, ptr %6, i64 16
  store ptr %8, ptr %11, align 8
  %12 = getelementptr inbounds i8, ptr %6, i64 24
  store ptr %4, ptr %12, align 8
  %13 = getelementptr inbounds i8, ptr %6, i64 32
  store ptr %0, ptr %13, align 8
  %14 = getelementptr inbounds i8, ptr %6, i64 40
  store ptr %2, ptr %14, align 8
  store i32 2, ptr %7, align 8
  %15 = getelementptr inbounds i8, ptr %7, i64 8
  store ptr @H5A__dense_post_copy_file_cb, ptr %15, align 8
  %16 = load ptr, ptr %0, align 8
  %17 = call i32 @H5A__dense_iterate(ptr noundef %16, i64 noundef 0, ptr noundef %1, i32 noundef 0, i32 noundef 2, i64 noundef 0, ptr noundef null, ptr noundef nonnull %7, ptr noundef nonnull %6) #13
  %18 = icmp slt i32 %17, 0
  br i1 %18, label %19, label %23

19:                                               ; preds = %5
  %20 = load i64, ptr @H5E_ATTR_g, align 8
  %21 = load i64, ptr @H5E_CANTINIT_g, align 8
  %22 = call i32 (ptr, ptr, i32, i64, i64, ptr, ...) @H5E_printf_stack(ptr noundef nonnull @.str.3, ptr noundef nonnull @__func__.H5A__dense_post_copy_file_all, i32 noundef 2475, i64 noundef %20, i64 noundef %21, ptr noundef nonnull @.str.58) #13
  br label %23

23:                                               ; preds = %5, %19
  %.0 = phi i32 [ -1, %19 ], [ 0, %5 ]
  ret i32 %.0
}